target datalayout = "e-m:e-p270:32:32-p271:32:32-p272:64:64-i64:64-i128:128-f80:128-n8:16:32:64-S128"
target triple = "x86_64-pc-linux-gnu"

%"class.llvm::codeview::DebugSubsectionRecord" = type { i32, %"class.llvm::BinaryStreamRef" }
%"class.llvm::BinaryStreamRef" = type { %"class.llvm::BinaryStreamRefBase" }
%"class.llvm::BinaryStreamRefBase" = type { %"class.std::shared_ptr", ptr, i64, %"class.std::optional" }
%"class.std::shared_ptr" = type { %"class.std::__shared_ptr" }
%"class.std::__shared_ptr" = type { ptr, %"class.std::__shared_count" }
%"class.std::__shared_count" = type { ptr }
%"class.std::optional" = type { %"struct.std::_Optional_base" }
%"struct.std::_Optional_base" = type { %"struct.std::_Optional_payload" }
%"struct.std::_Optional_payload" = type { %"struct.std::_Optional_payload_base.base", [7 x i8] }
%"struct.std::_Optional_payload_base.base" = type <{ %"union.std::_Optional_payload_base<unsigned long>::_Storage", i8 }>
%"union.std::_Optional_payload_base<unsigned long>::_Storage" = type { i64 }
%"struct.std::_Optional_payload_base" = type <{ %"union.std::_Optional_payload_base<unsigned long>::_Storage", i8, [7 x i8] }>

; Function Attrs: mustprogress nounwind uwtable
define linkonce_odr hidden noundef nonnull align 8 dereferenceable(8) ptr @_ZNKSt22_Optional_payload_baseImE6_M_getEv(ptr noundef nonnull align 8 dereferenceable(9) %0) #0 comdat align 2 {
  %2 = alloca ptr, align 8
  store ptr %0, ptr %2, align 8
  %3 = load ptr, ptr %2, align 8
  %4 = getelementptr inbounds nuw %"struct.std::_Optional_payload_base", ptr %3, i32 0, i32 0
  ret ptr %4
}

; Function Attrs: mustprogress nounwind uwtable
define linkonce_odr hidden noundef nonnull align 8 dereferenceable(8) ptr @_ZNKSt19_Optional_base_implImSt14_Optional_baseImLb1ELb1EEE6_M_getEv(ptr noundef nonnull align 1 dereferenceable(1) %0) #0 comdat align 2 {
  %2 = alloca ptr, align 8
  store ptr %0, ptr %2, align 8
  %3 = load ptr, ptr %2, align 8
  br label %4

4:                                                ; preds = %1
  br label %5

5:                                                ; preds = %4
  %6 = getelementptr inbounds nuw %"struct.std::_Optional_base", ptr %3, i32 0, i32 0
  %7 = call noundef nonnull align 8 dereferenceable(8) ptr @_ZNKSt22_Optional_payload_baseImE6_M_getEv(ptr noundef nonnull align 8 dereferenceable(9) %6) #7
  ret ptr %7
}

; Function Attrs: mustprogress nounwind uwtable
define linkonce_odr hidden noundef zeroext i1 @_ZNKSt19_Optional_base_implImSt14_Optional_baseImLb1ELb1EEE13_M_is_engagedEv(ptr noundef nonnull align 1 dereferenceable(1) %0) #0 comdat align 2 {
  %2 = alloca ptr, align 8
  store ptr %0, ptr %2, align 8
  %3 = load ptr, ptr %2, align 8
  %4 = getelementptr inbounds nuw %"struct.std::_Optional_base", ptr %3, i32 0, i32 0
  %5 = getelementptr inbounds nuw %"struct.std::_Optional_payload_base", ptr %4, i32 0, i32 1
  %6 = load i8, ptr %5, align 8
  %7 = trunc i8 %6 to i1
  ret i1 %7
}

; Function Attrs: mustprogress nounwind uwtable
define linkonce_odr hidden noundef nonnull align 8 dereferenceable(8) ptr @_ZNKRSt8optionalImEdeEv(ptr noundef nonnull align 8 dereferenceable(16) %0) #0 comdat align 2 {
  %2 = alloca ptr, align 8
  store ptr %0, ptr %2, align 8
  %3 = load ptr, ptr %2, align 8
  %4 = call noundef nonnull align 8 dereferenceable(8) ptr @_ZNKSt19_Optional_base_implImSt14_Optional_baseImLb1ELb1EEE6_M_getEv(ptr noundef nonnull align 1 dereferenceable(1) %3) #7
  ret ptr %4
}

; Function Attrs: mustprogress nounwind uwtable
define linkonce_odr hidden noundef zeroext i1 @_ZNKSt8optionalImEcvbEv(ptr noundef nonnull align 8 dereferenceable(16) %0) #0 comdat align 2 {
  %2 = alloca ptr, align 8
  store ptr %0, ptr %2, align 8
  %3 = load ptr, ptr %2, align 8
  %4 = call noundef zeroext i1 @_ZNKSt19_Optional_base_implImSt14_Optional_baseImLb1ELb1EEE13_M_is_engagedEv(ptr noundef nonnull align 1 dereferenceable(1) %3) #7
  ret i1 %4
}

; Function Attrs: mustprogress nounwind uwtable
define linkonce_odr hidden noundef i64 @_ZNK4llvm19BinaryStreamRefBaseINS_15BinaryStreamRefENS_12BinaryStreamEE9getLengthEv(ptr noundef nonnull align 8 dereferenceable(48) %0) #0 comdat align 2 {
  %2 = alloca i64, align 8
  %3 = alloca ptr, align 8
  store ptr %0, ptr %3, align 8
  %4 = load ptr, ptr %3, align 8
  %5 = getelementptr inbounds nuw %"class.llvm::BinaryStreamRefBase", ptr %4, i32 0, i32 3
  %6 = call noundef zeroext i1 @_ZNKSt8optionalImEcvbEv(ptr noundef nonnull align 8 dereferenceable(16) %5) #7
  br i1 %6, label %7, label %11

7:                                                ; preds = %1
  %8 = getelementptr inbounds nuw %"class.llvm::BinaryStreamRefBase", ptr %4, i32 0, i32 3
  %9 = call noundef nonnull align 8 dereferenceable(8) ptr @_ZNKRSt8optionalImEdeEv(ptr noundef nonnull align 8 dereferenceable(16) %8) #7
  %10 = load i64, ptr %9, align 8
  store i64 %10, ptr %2, align 8
  br label %28

11:                                               ; preds = %1
  %12 = getelementptr inbounds nuw %"class.llvm::BinaryStreamRefBase", ptr %4, i32 0, i32 1
  %13 = load ptr, ptr %12, align 8
  %14 = icmp ne ptr %13, null
  br i1 %14, label %15, label %25

15:                                               ; preds = %11
  %16 = getelementptr inbounds nuw %"class.llvm::BinaryStreamRefBase", ptr %4, i32 0, i32 1
  %17 = load ptr, ptr %16, align 8
  %18 = load ptr, ptr %17, align 8
  %19 = getelementptr inbounds ptr, ptr %18, i64 5
  %20 = load ptr, ptr %19, align 8
  %21 = call noundef i64 %20(ptr noundef nonnull align 8 dereferenceable(8) %17)
  %22 = getelementptr inbounds nuw %"class.llvm::BinaryStreamRefBase", ptr %4, i32 0, i32 2
  %23 = load i64, ptr %22, align 8
  %24 = sub i64 %21, %23
  br label %26

25:                                               ; preds = %11
  br label %26

26:                                               ; preds = %25, %15
  %27 = phi i64 [ %24, %15 ], [ 0, %25 ]
  store i64 %27, ptr %2, align 8
  br label %28

28:                                               ; preds = %26, %7
  %29 = load i64, ptr %2, align 8
  ret i64 %29
}

; Function Attrs: mustprogress nounwind uwtable
define dso_local noundef i32 @_ZNK4llvm8codeview21DebugSubsectionRecord15getRecordLengthEv(ptr noundef nonnull align 8 dereferenceable(56) %0) #0 align 2 {
  %2 = alloca ptr, align 8
  store ptr %0, ptr %2, align 8
  %3 = load ptr, ptr %2, align 8
  %4 = getelementptr inbounds nuw %"class.llvm::codeview::DebugSubsectionRecord", ptr %3, i32 0, i32 1
  %5 = call noundef i64 @_ZNK4llvm19BinaryStreamRefBaseINS_15BinaryStreamRefENS_12BinaryStreamEE9getLengthEv(ptr noundef nonnull align 8 dereferenceable(48) %4)
  %6 = add i64 8, %5
  %7 = trunc i64 %6 to i32
  ret i32 %7
}