; Function Attrs: mustprogress nounwind uwtable
define dso_local noundef i32 @_ZNK4llvm8codeview21DebugSubsectionRecord15getRecordLengthEv(ptr nocapture noundef nonnull readonly align 8 dereferenceable(56) %0) local_unnamed_addr #2 align 2 {
  %2 = getelementptr inbounds i8, ptr %0, i64 48
  %3 = load i8, ptr %2, align 8
  %4 = trunc i8 %3 to i1
  br i1 %4, label %5, label %8

5:                                                ; preds = %1
  %6 = getelementptr inbounds i8, ptr %0, i64 40
  %7 = load i64, ptr %6, align 8
  br label %_ZNK4llvm19BinaryStreamRefBaseINS_15BinaryStreamRefENS_12BinaryStreamEE9getLengthEv.exit

8:                                                ; preds = %1
  %9 = getelementptr inbounds i8, ptr %0, i64 24
  %10 = load ptr, ptr %9, align 8
  %.not.i = icmp eq ptr %10, null
  br i1 %.not.i, label %_ZNK4llvm19BinaryStreamRefBaseINS_15BinaryStreamRefENS_12BinaryStreamEE9getLengthEv.exit, label %11

11:                                               ; preds = %8
  %12 = load ptr, ptr %10, align 8
  %13 = getelementptr inbounds i8, ptr %12, i64 40
  %14 = load ptr, ptr %13, align 8
  %15 = tail call noundef i64 %14(ptr noundef nonnull align 8 dereferenceable(8) %10) #11
  %16 = getelementptr inbounds i8, ptr %0, i64 32
  %17 = load i64, ptr %16, align 8
  %18 = sub i64 %15, %17
  br label %_ZNK4llvm19BinaryStreamRefBaseINS_15BinaryStreamRefENS_12BinaryStreamEE9getLengthEv.exit

_ZNK4llvm19BinaryStreamRefBaseINS_15BinaryStreamRefENS_12BinaryStreamEE9getLengthEv.exit: ; preds = %5, %8, %11
  %.0.i = phi i64 [ %7, %5 ], [ %18, %11 ], [ 0, %8 ]
  %19 = trunc i64 %.0.i to i32
  %20 = add i32 %19, 8
  ret i32 %20
}